target datalayout = "e-m:e-p270:32:32-p271:32:32-p272:64:64-i64:64-i128:128-f80:128-n8:16:32:64-S128"
target triple = "x86_64-pc-linux-gnu"

%struct.printTableFooter = type { ptr, ptr }
%struct.printTableOpt = type { i32, i16, i32, i32, i16, i16, i32, i8, i8, i8, i8, i64, ptr, %struct.separator, %struct.separator, [2 x i8], i8, ptr, i32, i32, i32, i32, i32, i32 }
%struct.separator = type { ptr, i8 }
%struct.printTableContent = type { ptr, ptr, i32, i32, ptr, ptr, ptr, ptr, i64, ptr, ptr, ptr, ptr, ptr }

@cancel_pressed = dso_local global i32 0, align 4
@.str.13 = private unnamed_addr constant [8 x i8] c"<br />\0A\00", align 1
@.str.44 = private unnamed_addr constant [19 x i8] c"<table border=\22%d\22\00", align 1
@.str.45 = private unnamed_addr constant [4 x i8] c" %s\00", align 1
@.str.46 = private unnamed_addr constant [3 x i8] c">\0A\00", align 1
@.str.47 = private unnamed_addr constant [12 x i8] c"  <caption>\00", align 1
@.str.48 = private unnamed_addr constant [12 x i8] c"</caption>\0A\00", align 1
@.str.49 = private unnamed_addr constant [60 x i8] c"\0A  <tr><td colspan=\222\22 align=\22center\22>Record %lu</td></tr>\0A\00", align 1
@.str.50 = private unnamed_addr constant [41 x i8] c"\0A  <tr><td colspan=\222\22>&nbsp;</td></tr>\0A\00", align 1
@.str.51 = private unnamed_addr constant [29 x i8] c"  <tr valign=\22top\22>\0A    <th>\00", align 1
@.str.52 = private unnamed_addr constant [7 x i8] c"</th>\0A\00", align 1
@.str.53 = private unnamed_addr constant [20 x i8] c"    <td align=\22%s\22>\00", align 1
@.str.54 = private unnamed_addr constant [6 x i8] c"right\00", align 1
@.str.55 = private unnamed_addr constant [5 x i8] c"left\00", align 1
@.str.56 = private unnamed_addr constant [3 x i8] c" \09\00", align 1
@.str.57 = private unnamed_addr constant [8 x i8] c"&nbsp; \00", align 1
@.str.58 = private unnamed_addr constant [15 x i8] c"</td>\0A  </tr>\0A\00", align 1
@.str.59 = private unnamed_addr constant [10 x i8] c"</table>\0A\00", align 1
@.str.60 = private unnamed_addr constant [4 x i8] c"<p>\00", align 1
@.str.61 = private unnamed_addr constant [5 x i8] c"</p>\00", align 1

; Function Attrs: nounwind uwtable
define internal void @print_html_vertical(ptr noundef %0, ptr noundef %1) #0 {
  %3 = alloca ptr, align 8
  %4 = alloca ptr, align 8
  %5 = alloca i8, align 1
  %6 = alloca i16, align 2
  %7 = alloca ptr, align 8
  %8 = alloca i64, align 8
  %9 = alloca i32, align 4
  %10 = alloca ptr, align 8
  %11 = alloca i32, align 4
  %12 = alloca ptr, align 8
  store ptr %0, ptr %3, align 8
  store ptr %1, ptr %4, align 8
  call void @llvm.lifetime.start.p0(i64 1, ptr %5) #8
  %13 = load ptr, ptr %3, align 8
  %14 = getelementptr inbounds nuw %struct.printTableContent, ptr %13, i32 0, i32 0
  %15 = load ptr, ptr %14, align 8
  %16 = getelementptr inbounds nuw %struct.printTableOpt, ptr %15, i32 0, i32 7
  %17 = load i8, ptr %16, align 8, !range !4, !noundef !5
  %18 = trunc i8 %17 to i1
  %19 = zext i1 %18 to i8
  store i8 %19, ptr %5, align 1
  call void @llvm.lifetime.start.p0(i64 2, ptr %6) #8
  %20 = load ptr, ptr %3, align 8
  %21 = getelementptr inbounds nuw %struct.printTableContent, ptr %20, i32 0, i32 0
  %22 = load ptr, ptr %21, align 8
  %23 = getelementptr inbounds nuw %struct.printTableOpt, ptr %22, i32 0, i32 4
  %24 = load i16, ptr %23, align 8
  store i16 %24, ptr %6, align 2
  call void @llvm.lifetime.start.p0(i64 8, ptr %7) #8
  %25 = load ptr, ptr %3, align 8
  %26 = getelementptr inbounds nuw %struct.printTableContent, ptr %25, i32 0, i32 0
  %27 = load ptr, ptr %26, align 8
  %28 = getelementptr inbounds nuw %struct.printTableOpt, ptr %27, i32 0, i32 17
  %29 = load ptr, ptr %28, align 8
  store ptr %29, ptr %7, align 8
  call void @llvm.lifetime.start.p0(i64 8, ptr %8) #8
  %30 = load ptr, ptr %3, align 8
  %31 = getelementptr inbounds nuw %struct.printTableContent, ptr %30, i32 0, i32 0
  %32 = load ptr, ptr %31, align 8
  %33 = getelementptr inbounds nuw %struct.printTableOpt, ptr %32, i32 0, i32 11
  %34 = load i64, ptr %33, align 8
  %35 = add i64 %34, 1
  store i64 %35, ptr %8, align 8
  call void @llvm.lifetime.start.p0(i64 4, ptr %9) #8
  call void @llvm.lifetime.start.p0(i64 8, ptr %10) #8
  %36 = load volatile i32, ptr @cancel_pressed, align 4
  %37 = icmp ne i32 %36, 0
  br i1 %37, label %38, label %39

38:                                               ; preds = %2
  store i32 1, ptr %11, align 4
  br label %212

39:                                               ; preds = %2
  %40 = load ptr, ptr %3, align 8
  %41 = getelementptr inbounds nuw %struct.printTableContent, ptr %40, i32 0, i32 0
  %42 = load ptr, ptr %41, align 8
  %43 = getelementptr inbounds nuw %struct.printTableOpt, ptr %42, i32 0, i32 8
  %44 = load i8, ptr %43, align 1, !range !4, !noundef !5
  %45 = trunc i8 %44 to i1
  br i1 %45, label %46, label %77

46:                                               ; preds = %39
  %47 = load ptr, ptr %4, align 8
  %48 = load i16, ptr %6, align 2
  %49 = zext i16 %48 to i32
  %50 = call i32 (ptr, ptr, ...) @pg_fprintf(ptr noundef %47, ptr noundef @.str.44, i32 noundef %49)
  %51 = load ptr, ptr %7, align 8
  %52 = icmp ne ptr %51, null
  br i1 %52, label %53, label %57

53:                                               ; preds = %46
  %54 = load ptr, ptr %4, align 8
  %55 = load ptr, ptr %7, align 8
  %56 = call i32 (ptr, ptr, ...) @pg_fprintf(ptr noundef %54, ptr noundef @.str.45, ptr noundef %55)
  br label %57

57:                                               ; preds = %53, %46
  %58 = load ptr, ptr %4, align 8
  %59 = call i32 @fputs(ptr noundef @.str.46, ptr noundef %58)
  %60 = load i8, ptr %5, align 1, !range !4, !noundef !5
  %61 = trunc i8 %60 to i1
  br i1 %61, label %76, label %62

62:                                               ; preds = %57
  %63 = load ptr, ptr %3, align 8
  %64 = getelementptr inbounds nuw %struct.printTableContent, ptr %63, i32 0, i32 1
  %65 = load ptr, ptr %64, align 8
  %66 = icmp ne ptr %65, null
  br i1 %66, label %67, label %76

67:                                               ; preds = %62
  %68 = load ptr, ptr %4, align 8
  %69 = call i32 @fputs(ptr noundef @.str.47, ptr noundef %68)
  %70 = load ptr, ptr %3, align 8
  %71 = getelementptr inbounds nuw %struct.printTableContent, ptr %70, i32 0, i32 1
  %72 = load ptr, ptr %71, align 8
  %73 = load ptr, ptr %4, align 8
  call void @html_escaped_print(ptr noundef %72, ptr noundef %73)
  %74 = load ptr, ptr %4, align 8
  %75 = call i32 @fputs(ptr noundef @.str.48, ptr noundef %74)
  br label %76

76:                                               ; preds = %67, %62, %57
  br label %77

77:                                               ; preds = %76, %39
  store i32 0, ptr %9, align 4
  %78 = load ptr, ptr %3, align 8
  %79 = getelementptr inbounds nuw %struct.printTableContent, ptr %78, i32 0, i32 6
  %80 = load ptr, ptr %79, align 8
  store ptr %80, ptr %10, align 8
  br label %81

81:                                               ; preds = %160, %77
  %82 = load ptr, ptr %10, align 8
  %83 = load ptr, ptr %82, align 8
  %84 = icmp ne ptr %83, null
  br i1 %84, label %85, label %165

85:                                               ; preds = %81
  %86 = load i32, ptr %9, align 4
  %87 = load ptr, ptr %3, align 8
  %88 = getelementptr inbounds nuw %struct.printTableContent, ptr %87, i32 0, i32 2
  %89 = load i32, ptr %88, align 8
  %90 = urem i32 %86, %89
  %91 = icmp eq i32 %90, 0
  br i1 %91, label %92, label %108

92:                                               ; preds = %85
  %93 = load volatile i32, ptr @cancel_pressed, align 4
  %94 = icmp ne i32 %93, 0
  br i1 %94, label %95, label %96

95:                                               ; preds = %92
  br label %165

96:                                               ; preds = %92
  %97 = load i8, ptr %5, align 1, !range !4, !noundef !5
  %98 = trunc i8 %97 to i1
  br i1 %98, label %104, label %99

99:                                               ; preds = %96
  %100 = load ptr, ptr %4, align 8
  %101 = load i64, ptr %8, align 8
  %102 = add i64 %101, 1
  store i64 %102, ptr %8, align 8
  %103 = call i32 (ptr, ptr, ...) @pg_fprintf(ptr noundef %100, ptr noundef @.str.49, i64 noundef %101)
  br label %107

104:                                              ; preds = %96
  %105 = load ptr, ptr %4, align 8
  %106 = call i32 @fputs(ptr noundef @.str.50, ptr noundef %105)
  br label %107

107:                                              ; preds = %104, %99
  br label %108

108:                                              ; preds = %107, %85
  %109 = load ptr, ptr %4, align 8
  %110 = call i32 @fputs(ptr noundef @.str.51, ptr noundef %109)
  %111 = load ptr, ptr %3, align 8
  %112 = getelementptr inbounds nuw %struct.printTableContent, ptr %111, i32 0, i32 4
  %113 = load ptr, ptr %112, align 8
  %114 = load i32, ptr %9, align 4
  %115 = load ptr, ptr %3, align 8
  %116 = getelementptr inbounds nuw %struct.printTableContent, ptr %115, i32 0, i32 2
  %117 = load i32, ptr %116, align 8
  %118 = urem i32 %114, %117
  %119 = zext i32 %118 to i64
  %120 = getelementptr inbounds nuw ptr, ptr %113, i64 %119
  %121 = load ptr, ptr %120, align 8
  %122 = load ptr, ptr %4, align 8
  call void @html_escaped_print(ptr noundef %121, ptr noundef %122)
  %123 = load ptr, ptr %4, align 8
  %124 = call i32 @fputs(ptr noundef @.str.52, ptr noundef %123)
  %125 = load ptr, ptr %4, align 8
  %126 = load ptr, ptr %3, align 8
  %127 = getelementptr inbounds nuw %struct.printTableContent, ptr %126, i32 0, i32 12
  %128 = load ptr, ptr %127, align 8
  %129 = load i32, ptr %9, align 4
  %130 = load ptr, ptr %3, align 8
  %131 = getelementptr inbounds nuw %struct.printTableContent, ptr %130, i32 0, i32 2
  %132 = load i32, ptr %131, align 8
  %133 = urem i32 %129, %132
  %134 = zext i32 %133 to i64
  %135 = getelementptr inbounds nuw i8, ptr %128, i64 %134
  %136 = load i8, ptr %135, align 1
  %137 = sext i8 %136 to i32
  %138 = icmp eq i32 %137, 114
  %139 = select i1 %138, ptr @.str.54, ptr @.str.55
  %140 = call i32 (ptr, ptr, ...) @pg_fprintf(ptr noundef %125, ptr noundef @.str.53, ptr noundef %139)
  %141 = load ptr, ptr %10, align 8
  %142 = load ptr, ptr %141, align 8
  %143 = load ptr, ptr %10, align 8
  %144 = load ptr, ptr %143, align 8
  %145 = call i64 @strspn(ptr noundef %144, ptr noundef @.str.56) #9
  %146 = getelementptr inbounds nuw i8, ptr %142, i64 %145
  %147 = load i8, ptr %146, align 1
  %148 = sext i8 %147 to i32
  %149 = icmp eq i32 %148, 0
  br i1 %149, label %150, label %153

150:                                              ; preds = %108
  %151 = load ptr, ptr %4, align 8
  %152 = call i32 @fputs(ptr noundef @.str.57, ptr noundef %151)
  br label %157

153:                                              ; preds = %108
  %154 = load ptr, ptr %10, align 8
  %155 = load ptr, ptr %154, align 8
  %156 = load ptr, ptr %4, align 8
  call void @html_escaped_print(ptr noundef %155, ptr noundef %156)
  br label %157

157:                                              ; preds = %153, %150
  %158 = load ptr, ptr %4, align 8
  %159 = call i32 @fputs(ptr noundef @.str.58, ptr noundef %158)
  br label %160

160:                                              ; preds = %157
  %161 = load i32, ptr %9, align 4
  %162 = add i32 %161, 1
  store i32 %162, ptr %9, align 4
  %163 = load ptr, ptr %10, align 8
  %164 = getelementptr inbounds nuw ptr, ptr %163, i32 1
  store ptr %164, ptr %10, align 8
  br label %81, !llvm.loop !43

165:                                              ; preds = %95, %81
  %166 = load ptr, ptr %3, align 8
  %167 = getelementptr inbounds nuw %struct.printTableContent, ptr %166, i32 0, i32 0
  %168 = load ptr, ptr %167, align 8
  %169 = getelementptr inbounds nuw %struct.printTableOpt, ptr %168, i32 0, i32 9
  %170 = load i8, ptr %169, align 2, !range !4, !noundef !5
  %171 = trunc i8 %170 to i1
  br i1 %171, label %172, label %211

172:                                              ; preds = %165
  %173 = load ptr, ptr %4, align 8
  %174 = call i32 @fputs(ptr noundef @.str.59, ptr noundef %173)
  %175 = load i8, ptr %5, align 1, !range !4, !noundef !5
  %176 = trunc i8 %175 to i1
  br i1 %176, label %208, label %177

177:                                              ; preds = %172
  %178 = load ptr, ptr %3, align 8
  %179 = getelementptr inbounds nuw %struct.printTableContent, ptr %178, i32 0, i32 10
  %180 = load ptr, ptr %179, align 8
  %181 = icmp ne ptr %180, null
  br i1 %181, label %182, label %208

182:                                              ; preds = %177
  %183 = load volatile i32, ptr @cancel_pressed, align 4
  %184 = icmp ne i32 %183, 0
  br i1 %184, label %208, label %185

185:                                              ; preds = %182
  call void @llvm.lifetime.start.p0(i64 8, ptr %12) #8
  %186 = load ptr, ptr %4, align 8
  %187 = call i32 @fputs(ptr noundef @.str.60, ptr noundef %186)
  %188 = load ptr, ptr %3, align 8
  %189 = getelementptr inbounds nuw %struct.printTableContent, ptr %188, i32 0, i32 10
  %190 = load ptr, ptr %189, align 8
  store ptr %190, ptr %12, align 8
  br label %191

191:                                              ; preds = %201, %185
  %192 = load ptr, ptr %12, align 8
  %193 = icmp ne ptr %192, null
  br i1 %193, label %194, label %205

194:                                              ; preds = %191
  %195 = load ptr, ptr %12, align 8
  %196 = getelementptr inbounds nuw %struct.printTableFooter, ptr %195, i32 0, i32 0
  %197 = load ptr, ptr %196, align 8
  %198 = load ptr, ptr %4, align 8
  call void @html_escaped_print(ptr noundef %197, ptr noundef %198)
  %199 = load ptr, ptr %4, align 8
  %200 = call i32 @fputs(ptr noundef @.str.13, ptr noundef %199)
  br label %201

201:                                              ; preds = %194
  %202 = load ptr, ptr %12, align 8
  %203 = getelementptr inbounds nuw %struct.printTableFooter, ptr %202, i32 0, i32 1
  %204 = load ptr, ptr %203, align 8
  store ptr %204, ptr %12, align 8
  br label %191, !llvm.loop !44

205:                                              ; preds = %191
  %206 = load ptr, ptr %4, align 8
  %207 = call i32 @fputs(ptr noundef @.str.61, ptr noundef %206)
  call void @llvm.lifetime.end.p0(i64 8, ptr %12) #8
  br label %208

208:                                              ; preds = %205, %182, %177, %172
  %209 = load ptr, ptr %4, align 8
  %210 = call i32 @fputc(i32 noundef 10, ptr noundef %209)
  br label %211

211:                                              ; preds = %208, %165
  store i32 0, ptr %11, align 4
  br label %212

212:                                              ; preds = %211, %38
  call void @llvm.lifetime.end.p0(i64 8, ptr %10) #8
  call void @llvm.lifetime.end.p0(i64 4, ptr %9) #8
  call void @llvm.lifetime.end.p0(i64 8, ptr %8) #8
  call void @llvm.lifetime.end.p0(i64 8, ptr %7) #8
  call void @llvm.lifetime.end.p0(i64 2, ptr %6) #8
  call void @llvm.lifetime.end.p0(i64 1, ptr %5) #8
  %213 = load i32, ptr %11, align 4
  switch i32 %213, label %215 [
    i32 0, label %214
    i32 1, label %214
  ]

214:                                              ; preds = %212, %212
  ret void

215:                                              ; preds = %212
  unreachable
}