; Function Attrs: nounwind uwtable
define internal fastcc void @print_html_vertical(ptr noundef readonly captures(none) %0, ptr noundef %1) unnamed_addr #3 {
  %3 = load ptr, ptr %0, align 8
  %4 = getelementptr inbounds nuw i8, ptr %3, i64 24
  %5 = load i8, ptr %4, align 8, !range !6, !noundef !7
  %6 = trunc nuw i8 %5 to i1
  %7 = getelementptr inbounds nuw i8, ptr %3, i64 16
  %8 = load i16, ptr %7, align 8
  %9 = getelementptr inbounds nuw i8, ptr %3, i64 88
  %10 = load ptr, ptr %9, align 8
  %11 = getelementptr inbounds nuw i8, ptr %3, i64 32
  %12 = load i64, ptr %11, align 8
  %13 = add i64 %12, 1
  %14 = load volatile i32, ptr @cancel_pressed, align 4
  %.not = icmp eq i32 %14, 0
  br i1 %.not, label %15, label %102

15:                                               ; preds = %2
  %16 = getelementptr inbounds nuw i8, ptr %3, i64 25
  %17 = load i8, ptr %16, align 1, !range !6, !noundef !7
  %18 = trunc nuw i8 %17 to i1
  br i1 %18, label %19, label %33

19:                                               ; preds = %15
  %20 = zext i16 %8 to i32
  %21 = tail call i32 (ptr, ptr, ...) @pg_fprintf(ptr noundef %1, ptr noundef nonnull @.str.44, i32 noundef %20) #19
  %.not59 = icmp eq ptr %10, null
  br i1 %.not59, label %24, label %22

22:                                               ; preds = %19
  %23 = tail call i32 (ptr, ptr, ...) @pg_fprintf(ptr noundef %1, ptr noundef nonnull @.str.45, ptr noundef nonnull %10) #19
  br label %24

24:                                               ; preds = %22, %19
  %25 = tail call i64 @fwrite(ptr nonnull @.str.46, i64 2, i64 1, ptr %1)
  br i1 %6, label %33, label %26

26:                                               ; preds = %24
  %27 = getelementptr inbounds nuw i8, ptr %0, i64 8
  %28 = load ptr, ptr %27, align 8
  %.not60 = icmp eq ptr %28, null
  br i1 %.not60, label %33, label %29

29:                                               ; preds = %26
  %30 = tail call i64 @fwrite(ptr nonnull @.str.47, i64 11, i64 1, ptr %1)
  %31 = load ptr, ptr %27, align 8
  tail call void @html_escaped_print(ptr noundef %31, ptr noundef %1)
  %32 = tail call i64 @fwrite(ptr nonnull @.str.48, i64 11, i64 1, ptr %1)
  br label %33

33:                                               ; preds = %24, %26, %29, %15
  %34 = getelementptr inbounds nuw i8, ptr %0, i64 40
  %35 = load ptr, ptr %34, align 8
  %36 = load ptr, ptr %35, align 8
  %.not6166 = icmp eq ptr %36, null
  br i1 %.not6166, label %._crit_edge, label %.lr.ph

.lr.ph:                                           ; preds = %33
  %37 = getelementptr inbounds nuw i8, ptr %0, i64 16
  %38 = getelementptr inbounds nuw i8, ptr %0, i64 24
  %39 = getelementptr inbounds nuw i8, ptr %0, i64 88
  br label %40

40:                                               ; preds = %.lr.ph, %78
  %.05569 = phi ptr [ %35, %.lr.ph ], [ %81, %78 ]
  %.05668 = phi i32 [ 0, %.lr.ph ], [ %80, %78 ]
  %.05767 = phi i64 [ %13, %.lr.ph ], [ %.1, %78 ]
  %41 = load i32, ptr %37, align 8
  %42 = urem i32 %.05668, %41
  %43 = icmp eq i32 %42, 0
  br i1 %43, label %44, label %52

44:                                               ; preds = %40
  %45 = load volatile i32, ptr @cancel_pressed, align 4
  %.not62 = icmp eq i32 %45, 0
  br i1 %.not62, label %46, label %._crit_edge

46:                                               ; preds = %44
  br i1 %6, label %50, label %47

47:                                               ; preds = %46
  %48 = add i64 %.05767, 1
  %49 = tail call i32 (ptr, ptr, ...) @pg_fprintf(ptr noundef %1, ptr noundef nonnull @.str.49, i64 noundef %.05767) #19
  br label %52

50:                                               ; preds = %46
  %51 = tail call i64 @fwrite(ptr nonnull @.str.50, i64 40, i64 1, ptr %1)
  br label %52

52:                                               ; preds = %47, %50, %40
  %.1 = phi i64 [ %.05767, %50 ], [ %48, %47 ], [ %.05767, %40 ]
  %53 = tail call i64 @fwrite(ptr nonnull @.str.51, i64 28, i64 1, ptr %1)
  %54 = load ptr, ptr %38, align 8
  %55 = load i32, ptr %37, align 8
  %56 = urem i32 %.05668, %55
  %57 = zext i32 %56 to i64
  %58 = getelementptr inbounds nuw ptr, ptr %54, i64 %57
  %59 = load ptr, ptr %58, align 8
  tail call void @html_escaped_print(ptr noundef %59, ptr noundef %1)
  %60 = tail call i64 @fwrite(ptr nonnull @.str.52, i64 6, i64 1, ptr %1)
  %61 = load ptr, ptr %39, align 8
  %62 = load i32, ptr %37, align 8
  %63 = urem i32 %.05668, %62
  %64 = zext i32 %63 to i64
  %65 = getelementptr inbounds nuw i8, ptr %61, i64 %64
  %66 = load i8, ptr %65, align 1
  %67 = icmp eq i8 %66, 114
  %68 = select i1 %67, ptr @.str.54, ptr @.str.55
  %69 = tail call i32 (ptr, ptr, ...) @pg_fprintf(ptr noundef %1, ptr noundef nonnull @.str.53, ptr noundef nonnull %68) #19
  %70 = load ptr, ptr %.05569, align 8
  %71 = tail call i64 @strspn(ptr noundef %70, ptr noundef nonnull @.str.56) #20
  %72 = getelementptr inbounds nuw i8, ptr %70, i64 %71
  %73 = load i8, ptr %72, align 1
  %74 = icmp eq i8 %73, 0
  br i1 %74, label %75, label %77

75:                                               ; preds = %52
  %76 = tail call i64 @fwrite(ptr nonnull @.str.57, i64 7, i64 1, ptr %1)
  br label %78

77:                                               ; preds = %52
  tail call void @html_escaped_print(ptr noundef nonnull %70, ptr noundef %1)
  br label %78

78:                                               ; preds = %77, %75
  %79 = tail call i64 @fwrite(ptr nonnull @.str.58, i64 14, i64 1, ptr %1)
  %80 = add i32 %.05668, 1
  %81 = getelementptr inbounds nuw i8, ptr %.05569, i64 8
  %82 = load ptr, ptr %81, align 8
  %.not61 = icmp eq ptr %82, null
  br i1 %.not61, label %._crit_edge, label %40, !llvm.loop !42

._crit_edge:                                      ; preds = %78, %44, %33
  %83 = load ptr, ptr %0, align 8
  %84 = getelementptr inbounds nuw i8, ptr %83, i64 26
  %85 = load i8, ptr %84, align 2, !range !6, !noundef !7
  %86 = trunc nuw i8 %85 to i1
  br i1 %86, label %87, label %102

87:                                               ; preds = %._crit_edge
  %88 = tail call i64 @fwrite(ptr nonnull @.str.59, i64 9, i64 1, ptr %1)
  br i1 %6, label %100, label %89

89:                                               ; preds = %87
  %90 = getelementptr inbounds nuw i8, ptr %0, i64 72
  %91 = load ptr, ptr %90, align 8
  %.not63 = icmp eq ptr %91, null
  br i1 %.not63, label %100, label %92

92:                                               ; preds = %89
  %93 = load volatile i32, ptr @cancel_pressed, align 4
  %.not64 = icmp eq i32 %93, 0
  br i1 %.not64, label %94, label %100

94:                                               ; preds = %92
  %95 = tail call i64 @fwrite(ptr nonnull @.str.60, i64 3, i64 1, ptr %1)
  %.071 = load ptr, ptr %90, align 8
  %.not6572 = icmp eq ptr %.071, null
  br i1 %.not6572, label %._crit_edge76, label %.lr.ph75

.lr.ph75:                                         ; preds = %94, %.lr.ph75
  %.073 = phi ptr [ %.0, %.lr.ph75 ], [ %.071, %94 ]
  %96 = load ptr, ptr %.073, align 8
  tail call void @html_escaped_print(ptr noundef %96, ptr noundef %1)
  %97 = tail call i64 @fwrite(ptr nonnull @.str.13, i64 7, i64 1, ptr %1)
  %98 = getelementptr inbounds nuw i8, ptr %.073, i64 8
  %.0 = load ptr, ptr %98, align 8
  %.not65 = icmp eq ptr %.0, null
  br i1 %.not65, label %._crit_edge76, label %.lr.ph75, !llvm.loop !43

._crit_edge76:                                    ; preds = %.lr.ph75, %94
  %99 = tail call i64 @fwrite(ptr nonnull @.str.61, i64 4, i64 1, ptr %1)
  br label %100

100:                                              ; preds = %._crit_edge76, %92, %89, %87
  %101 = tail call i32 @fputc(i32 noundef 10, ptr noundef %1)
  br label %102

102:                                              ; preds = %._crit_edge, %100, %2
  ret void
}